target datalayout = "e-m:e-p270:32:32-p271:32:32-p272:64:64-i64:64-i128:128-f80:128-n8:16:32:64-S128"
target triple = "x86_64-pc-linux-gnu"

%struct.mi_option_desc_s = type { i64, i32, i32, ptr, ptr }

@.str = private unnamed_addr constant [21 x i8] c"option '%s': %ld %s\0A\00", align 1
@.str.1 = private unnamed_addr constant [4 x i8] c"KiB\00", align 1
@.str.2 = private unnamed_addr constant [1 x i8] zeroinitializer, align 1
@mi_max_error_count = internal global i64 16, align 8
@mi_max_warning_count = internal global i64 16, align 8
@mi_out_default = internal global ptr null, align 8
@out_len = internal global i64 0, align 8
@out_buf = internal global [16385 x i8] zeroinitializer, align 16

; Function Attrs: nounwind uwtable
define internal void @mi_out_buf_flush(ptr noundef %0, i1 noundef zeroext %1, ptr noundef %2) #0 {
  %4 = alloca ptr, align 8
  %5 = alloca i8, align 1
  %6 = alloca ptr, align 8
  %7 = alloca i64, align 8
  %8 = alloca i64, align 8
  %9 = alloca i64, align 8
  store ptr %0, ptr %4, align 8, !tbaa !18
  %10 = zext i1 %1 to i8
  store i8 %10, ptr %5, align 1, !tbaa !21
  store ptr %2, ptr %6, align 8, !tbaa !18
  %11 = load ptr, ptr %4, align 8, !tbaa !18
  %12 = icmp eq ptr %11, null
  br i1 %12, label %13, label %14

13:                                               ; preds = %3
  br label %35

14:                                               ; preds = %3
  call void @llvm.lifetime.start.p0(i64 8, ptr %7) #12
  %15 = load i8, ptr %5, align 1, !tbaa !21, !range !23, !noundef !24
  %16 = trunc i8 %15 to i1
  %17 = select i1 %16, i64 16384, i64 1
  store i64 %17, ptr %8, align 8, !tbaa !7
  %18 = load i64, ptr %8, align 8
  %19 = atomicrmw add ptr @out_len, i64 %18 acq_rel, align 8
  store i64 %19, ptr %9, align 8
  %20 = load i64, ptr %9, align 8, !tbaa !7
  store i64 %20, ptr %7, align 8, !tbaa !7
  %21 = load i64, ptr %7, align 8, !tbaa !7
  %22 = icmp ugt i64 %21, 16384
  br i1 %22, label %23, label %24

23:                                               ; preds = %14
  store i64 16384, ptr %7, align 8, !tbaa !7
  br label %24

24:                                               ; preds = %23, %14
  %25 = load i64, ptr %7, align 8, !tbaa !7
  %26 = getelementptr inbounds nuw [16385 x i8], ptr @out_buf, i64 0, i64 %25
  store i8 0, ptr %26, align 1, !tbaa !26
  %27 = load ptr, ptr %4, align 8, !tbaa !18
  %28 = load ptr, ptr %6, align 8, !tbaa !18
  call void %27(ptr noundef @out_buf, ptr noundef %28) #11
  %29 = load i8, ptr %5, align 1, !tbaa !21, !range !23, !noundef !24
  %30 = trunc i8 %29 to i1
  br i1 %30, label %34, label %31

31:                                               ; preds = %24
  %32 = load i64, ptr %7, align 8, !tbaa !7
  %33 = getelementptr inbounds nuw [16385 x i8], ptr @out_buf, i64 0, i64 %32
  store i8 10, ptr %33, align 1, !tbaa !26
  br label %34

34:                                               ; preds = %31, %24
  call void @llvm.lifetime.end.p0(i64 8, ptr %7) #12
  br label %35

35:                                               ; preds = %34, %13
  ret void
}

; Function Attrs: nounwind uwtable
define internal zeroext i1 @mi_option_has_size_in_kib(i32 noundef %0) #0 {
  %2 = alloca i32, align 4
  store i32 %0, ptr %2, align 4, !tbaa !3
  %3 = load i32, ptr %2, align 4, !tbaa !3
  %4 = icmp eq i32 %3, 9
  br i1 %4, label %8, label %5

5:                                                ; preds = %1
  %6 = load i32, ptr %2, align 4, !tbaa !3
  %7 = icmp eq i32 %6, 23
  br label %8

8:                                                ; preds = %5, %1
  %9 = phi i1 [ true, %1 ], [ %7, %5 ]
  ret i1 %9
}

; Function Attrs: nounwind uwtable
define hidden i64 @mi_option_get(i32 noundef %0) #0 {
  %2 = alloca i64, align 8
  %3 = alloca i32, align 4
  %4 = alloca ptr, align 8
  store i32 %0, ptr %3, align 4, !tbaa !3
  %5 = load i32, ptr %3, align 4, !tbaa !3
  %6 = icmp ult i32 %5, 0
  br i1 %6, label %10, label %7

7:                                                ; preds = %1
  %8 = load i32, ptr %3, align 4, !tbaa !3
  %9 = icmp uge i32 %8, 36
  br i1 %9, label %10, label %11

10:                                               ; preds = %7, %1
  store i64 0, ptr %2, align 8
  br label %31

11:                                               ; preds = %7
  call void @llvm.lifetime.start.p0(i64 8, ptr %4) #12
  %12 = load i32, ptr %3, align 4, !tbaa !3
  %13 = zext i32 %12 to i64
  %14 = getelementptr inbounds nuw [36 x %struct.mi_option_desc_s], ptr @options, i64 0, i64 %13
  store ptr %14, ptr %4, align 8, !tbaa !9
  %15 = load ptr, ptr %4, align 8, !tbaa !9
  %16 = getelementptr inbounds nuw %struct.mi_option_desc_s, ptr %15, i32 0, i32 1
  %17 = load i32, ptr %16, align 8, !tbaa !19
  %18 = icmp eq i32 %17, 0
  %19 = xor i1 %18, true
  %20 = xor i1 %19, true
  %21 = zext i1 %20 to i32
  %22 = sext i32 %21 to i64
  %23 = call i64 @llvm.expect.i64(i64 %22, i64 0)
  %24 = icmp ne i64 %23, 0
  br i1 %24, label %25, label %27

25:                                               ; preds = %11
  %26 = load ptr, ptr %4, align 8, !tbaa !9
  call void @mi_option_init(ptr noundef %26) #11
  br label %27

27:                                               ; preds = %25, %11
  %28 = load ptr, ptr %4, align 8, !tbaa !9
  %29 = getelementptr inbounds nuw %struct.mi_option_desc_s, ptr %28, i32 0, i32 0
  %30 = load i64, ptr %29, align 8, !tbaa !15
  store i64 %30, ptr %2, align 8
  call void @llvm.lifetime.end.p0(i64 8, ptr %4) #12
  br label %31

31:                                               ; preds = %27, %10
  %32 = load i64, ptr %2, align 8
  ret i64 %32
}

; Function Attrs: nounwind uwtable
define internal void @mi_add_stderr_output() #0 {
  call void @mi_out_buf_flush(ptr noundef @mi_out_stderr, i1 noundef zeroext false, ptr noundef null) #11
  store volatile ptr @mi_out_buf_stderr, ptr @mi_out_default, align 8, !tbaa !18
  ret void
}

; Function Attrs: nounwind uwtable
define hidden void @_mi_options_init() #0 {
  %1 = alloca i32, align 4
  %2 = alloca i32, align 4
  %3 = alloca i64, align 8
  %4 = alloca ptr, align 8
  call void @mi_add_stderr_output() #11
  call void @llvm.lifetime.start.p0(i64 4, ptr %1) #12
  store i32 0, ptr %1, align 4, !tbaa !3
  br label %5

5:                                                ; preds = %25, %0
  %6 = load i32, ptr %1, align 4, !tbaa !3
  %7 = icmp slt i32 %6, 36
  br i1 %7, label %9, label %8

8:                                                ; preds = %5
  call void @llvm.lifetime.end.p0(i64 4, ptr %1) #12
  br label %28

9:                                                ; preds = %5
  call void @llvm.lifetime.start.p0(i64 4, ptr %2) #12
  %10 = load i32, ptr %1, align 4, !tbaa !3
  store i32 %10, ptr %2, align 4, !tbaa !3
  call void @llvm.lifetime.start.p0(i64 8, ptr %3) #12
  %11 = load i32, ptr %2, align 4, !tbaa !3
  %12 = call i64 @mi_option_get(i32 noundef %11) #11
  store i64 %12, ptr %3, align 8, !tbaa !7
  call void @llvm.lifetime.start.p0(i64 8, ptr %4) #12
  %13 = load i32, ptr %2, align 4, !tbaa !3
  %14 = zext i32 %13 to i64
  %15 = getelementptr inbounds nuw [36 x %struct.mi_option_desc_s], ptr @options, i64 0, i64 %14
  store ptr %15, ptr %4, align 8, !tbaa !9
  %16 = load ptr, ptr %4, align 8, !tbaa !9
  %17 = getelementptr inbounds nuw %struct.mi_option_desc_s, ptr %16, i32 0, i32 3
  %18 = load ptr, ptr %17, align 8, !tbaa !12
  %19 = load ptr, ptr %4, align 8, !tbaa !9
  %20 = getelementptr inbounds nuw %struct.mi_option_desc_s, ptr %19, i32 0, i32 0
  %21 = load i64, ptr %20, align 8, !tbaa !15
  %22 = load i32, ptr %2, align 4, !tbaa !3
  %23 = call zeroext i1 @mi_option_has_size_in_kib(i32 noundef %22) #11
  %24 = select i1 %23, ptr @.str.1, ptr @.str.2
  call void (ptr, ...) @_mi_verbose_message(ptr noundef @.str, ptr noundef %18, i64 noundef %21, ptr noundef %24) #11
  call void @llvm.lifetime.end.p0(i64 8, ptr %4) #12
  call void @llvm.lifetime.end.p0(i64 8, ptr %3) #12
  call void @llvm.lifetime.end.p0(i64 4, ptr %2) #12
  br label %25

25:                                               ; preds = %9
  %26 = load i32, ptr %1, align 4, !tbaa !3
  %27 = add nsw i32 %26, 1
  store i32 %27, ptr %1, align 4, !tbaa !3
  br label %5, !llvm.loop !16

28:                                               ; preds = %8
  %29 = call i64 @mi_option_get(i32 noundef 19) #11
  store i64 %29, ptr @mi_max_error_count, align 8, !tbaa !7
  %30 = call i64 @mi_option_get(i32 noundef 20) #11
  store i64 %30, ptr @mi_max_warning_count, align 8, !tbaa !7
  ret void
}