; Function Attrs: nounwind uwtable
define hidden void @_mi_options_init() local_unnamed_addr #1 {
  %1 = atomicrmw add ptr @out_len, i64 1 acq_rel, align 8
  %spec.store.select.i.i = tail call i64 @llvm.umin.i64(i64 %1, i64 16384)
  %2 = getelementptr inbounds nuw [16385 x i8], ptr @out_buf, i64 0, i64 %spec.store.select.i.i
  store i8 0, ptr %2, align 1, !tbaa !3
  %3 = load i8, ptr @out_buf, align 16, !tbaa !3
  %.not3.i.i = icmp eq i8 %3, 0
  br i1 %.not3.i.i, label %mi_add_stderr_output.exit, label %4

4:                                                ; preds = %0
  tail call void @_mi_prim_out_stderr(ptr noundef nonnull @out_buf) #16
  br label %mi_add_stderr_output.exit

mi_add_stderr_output.exit:                        ; preds = %0, %4
  store i8 10, ptr %2, align 1, !tbaa !3
  store volatile ptr @mi_out_buf_stderr, ptr @mi_out_default, align 8, !tbaa !6
  br label %14

5:                                                ; preds = %mi_option_get.exit8
  %6 = load i32, ptr getelementptr inbounds nuw (i8, ptr @options, i64 616), align 8, !tbaa !8
  %7 = icmp eq i32 %6, 0
  br i1 %7, label %8, label %mi_option_get.exit, !prof !13

8:                                                ; preds = %5
  tail call fastcc void @mi_option_init(ptr noundef nonnull getelementptr inbounds nuw (i8, ptr @options, i64 608)) #17
  br label %mi_option_get.exit

mi_option_get.exit:                               ; preds = %5, %8
  %9 = load i64, ptr getelementptr inbounds nuw (i8, ptr @options, i64 608), align 16, !tbaa !14
  store i64 %9, ptr @mi_max_error_count, align 8, !tbaa !15
  %10 = load i32, ptr getelementptr inbounds nuw (i8, ptr @options, i64 648), align 8, !tbaa !8
  %11 = icmp eq i32 %10, 0
  br i1 %11, label %12, label %mi_option_get.exit7, !prof !13

12:                                               ; preds = %mi_option_get.exit
  tail call fastcc void @mi_option_init(ptr noundef nonnull getelementptr inbounds nuw (i8, ptr @options, i64 640)) #17
  br label %mi_option_get.exit7

mi_option_get.exit7:                              ; preds = %mi_option_get.exit, %12
  %13 = load i64, ptr getelementptr inbounds nuw (i8, ptr @options, i64 640), align 16, !tbaa !14
  store i64 %13, ptr @mi_max_warning_count, align 8, !tbaa !15
  ret void

14:                                               ; preds = %mi_add_stderr_output.exit, %mi_option_get.exit8
  %indvars.iv = phi i64 [ 0, %mi_add_stderr_output.exit ], [ %indvars.iv.next, %mi_option_get.exit8 ]
  %15 = getelementptr inbounds nuw [36 x %struct.mi_option_desc_s], ptr @options, i64 0, i64 %indvars.iv
  %16 = getelementptr inbounds nuw i8, ptr %15, i64 8
  %17 = load i32, ptr %16, align 8, !tbaa !8
  %18 = icmp eq i32 %17, 0
  br i1 %18, label %19, label %mi_option_get.exit8, !prof !13

19:                                               ; preds = %14
  tail call fastcc void @mi_option_init(ptr noundef nonnull %15) #17
  br label %mi_option_get.exit8

mi_option_get.exit8:                              ; preds = %14, %19
  %20 = getelementptr inbounds nuw i8, ptr %15, i64 16
  %21 = load ptr, ptr %20, align 16, !tbaa !16
  %22 = load i64, ptr %15, align 16, !tbaa !14
  %23 = icmp eq i64 %indvars.iv, 9
  %24 = icmp eq i64 %indvars.iv, 23
  %25 = or i1 %23, %24
  %26 = select i1 %25, ptr @.str.1, ptr @.str.2
  tail call void (ptr, ...) @_mi_verbose_message(ptr noundef nonnull @.str, ptr noundef %21, i64 noundef %22, ptr noundef nonnull %26) #17
  %indvars.iv.next = add nuw nsw i64 %indvars.iv, 1
  %exitcond.not = icmp eq i64 %indvars.iv.next, 36
  br i1 %exitcond.not, label %5, label %14, !llvm.loop !17
}